target datalayout = "e-m:e-p270:32:32-p271:32:32-p272:64:64-i64:64-i128:128-f80:128-n8:16:32:64-S128"
target triple = "x86_64-pc-linux-gnu"

%class.btAlignedObjectArray = type <{ [4 x i8], i32, i32, [4 x i8], ptr, i8, [7 x i8] }>
%class.btCollisionDispatcherMt = type { %class.btCollisionDispatcher, %class.btAlignedObjectArray.0, %class.btAlignedObjectArray.0, i8, i32 }
%class.btCollisionDispatcher = type { %class.btDispatcher, i32, [4 x i8], %class.btAlignedObjectArray, ptr, ptr, ptr, [36 x [36 x ptr]], [36 x [36 x ptr]], ptr }
%class.btDispatcher = type { ptr }
%class.btAlignedObjectArray.0 = type <{ [4 x i8], i32, i32, [4 x i8], ptr, i8, [7 x i8] }>

; Function Attrs: inlinehint mustprogress nounwind uwtable
define linkonce_odr dso_local void @_ZN20btAlignedObjectArrayIP20btPersistentManifoldE4initEv(ptr noundef nonnull align 8 dereferenceable(25) %0) #7 comdat align 2 {
  %2 = alloca ptr, align 8
  store ptr %0, ptr %2, align 8, !tbaa !33
  %3 = load ptr, ptr %2, align 8
  %4 = getelementptr inbounds nuw %class.btAlignedObjectArray, ptr %3, i32 0, i32 5
  store i8 1, ptr %4, align 8, !tbaa !144
  %5 = getelementptr inbounds nuw %class.btAlignedObjectArray, ptr %3, i32 0, i32 4
  store ptr null, ptr %5, align 8, !tbaa !83
  %6 = getelementptr inbounds nuw %class.btAlignedObjectArray, ptr %3, i32 0, i32 1
  store i32 0, ptr %6, align 4, !tbaa !81
  %7 = getelementptr inbounds nuw %class.btAlignedObjectArray, ptr %3, i32 0, i32 2
  store i32 0, ptr %7, align 8, !tbaa !145
  ret void
}

; Function Attrs: mustprogress nounwind uwtable
define linkonce_odr dso_local void @_ZN18btAlignedAllocatorIP20btPersistentManifoldLj16EEC2Ev(ptr noundef nonnull align 1 dereferenceable(1) %0) unnamed_addr #1 comdat align 2 {
  %2 = alloca ptr, align 8
  store ptr %0, ptr %2, align 8, !tbaa !142
  ret void
}

; Function Attrs: inlinehint mustprogress nounwind uwtable
define linkonce_odr dso_local void @_ZN20btAlignedObjectArrayIS_IP20btPersistentManifoldEE4initEv(ptr noundef nonnull align 8 dereferenceable(25) %0) #7 comdat align 2 {
  %2 = alloca ptr, align 8
  store ptr %0, ptr %2, align 8, !tbaa !31
  %3 = load ptr, ptr %2, align 8
  %4 = getelementptr inbounds nuw %class.btAlignedObjectArray.0, ptr %3, i32 0, i32 5
  store i8 1, ptr %4, align 8, !tbaa !136
  %5 = getelementptr inbounds nuw %class.btAlignedObjectArray.0, ptr %3, i32 0, i32 4
  store ptr null, ptr %5, align 8, !tbaa !34
  %6 = getelementptr inbounds nuw %class.btAlignedObjectArray.0, ptr %3, i32 0, i32 1
  store i32 0, ptr %6, align 4, !tbaa !38
  %7 = getelementptr inbounds nuw %class.btAlignedObjectArray.0, ptr %3, i32 0, i32 2
  store i32 0, ptr %7, align 8, !tbaa !137
  ret void
}

; Function Attrs: mustprogress nounwind uwtable
define linkonce_odr dso_local void @_ZN18btAlignedAllocatorI20btAlignedObjectArrayIP20btPersistentManifoldELj16EEC2Ev(ptr noundef nonnull align 1 dereferenceable(1) %0) unnamed_addr #1 comdat align 2 {
  %2 = alloca ptr, align 8
  store ptr %0, ptr %2, align 8, !tbaa !134
  ret void
}

; Function Attrs: mustprogress uwtable
define linkonce_odr dso_local void @_ZN20btAlignedObjectArrayIP20btPersistentManifoldEC2Ev(ptr noundef nonnull align 8 dereferenceable(25) %0) unnamed_addr #2 comdat align 2 {
  %2 = alloca ptr, align 8
  store ptr %0, ptr %2, align 8, !tbaa !33
  %3 = load ptr, ptr %2, align 8
  call void @_ZN18btAlignedAllocatorIP20btPersistentManifoldLj16EEC2Ev(ptr noundef nonnull align 1 dereferenceable(1) %3)
  call void @_ZN20btAlignedObjectArrayIP20btPersistentManifoldE4initEv(ptr noundef nonnull align 8 dereferenceable(25) %3)
  ret void
}

; Function Attrs: mustprogress uwtable
define linkonce_odr dso_local void @_ZN20btAlignedObjectArrayIS_IP20btPersistentManifoldEEC2Ev(ptr noundef nonnull align 8 dereferenceable(25) %0) unnamed_addr #2 comdat align 2 {
  %2 = alloca ptr, align 8
  store ptr %0, ptr %2, align 8, !tbaa !31
  %3 = load ptr, ptr %2, align 8
  call void @_ZN18btAlignedAllocatorI20btAlignedObjectArrayIP20btPersistentManifoldELj16EEC2Ev(ptr noundef nonnull align 1 dereferenceable(1) %3)
  call void @_ZN20btAlignedObjectArrayIS_IP20btPersistentManifoldEE4initEv(ptr noundef nonnull align 8 dereferenceable(25) %3)
  ret void
}

; Function Attrs: mustprogress uwtable
define dso_local void @_ZN23btCollisionDispatcherMtC2EP24btCollisionConfigurationi(ptr noundef nonnull align 8 dereferenceable(20888) %0, ptr noundef %1, i32 noundef %2) unnamed_addr #2 align 2 personality ptr @__gxx_personality_v0 {
  %4 = alloca ptr, align 8
  %5 = alloca ptr, align 8
  %6 = alloca i32, align 4
  %7 = alloca ptr, align 8
  %8 = alloca i32, align 4
  %9 = alloca %class.btAlignedObjectArray, align 8
  %10 = alloca %class.btAlignedObjectArray, align 8
  store ptr %0, ptr %4, align 8, !tbaa !12
  store ptr %1, ptr %5, align 8, !tbaa !14
  store i32 %2, ptr %6, align 4, !tbaa !9
  %11 = load ptr, ptr %4, align 8
  %12 = load ptr, ptr %5, align 8, !tbaa !14
  call void @_ZN21btCollisionDispatcherC2EP24btCollisionConfiguration(ptr noundef nonnull align 8 dereferenceable(20816) %11, ptr noundef %12)
  store ptr getelementptr inbounds inrange(-16, 128) ({ [18 x ptr] }, ptr @_ZTV23btCollisionDispatcherMt, i32 0, i32 0, i32 2), ptr %11, align 8, !tbaa !16
  %13 = getelementptr inbounds nuw %class.btCollisionDispatcherMt, ptr %11, i32 0, i32 1
  invoke void @_ZN20btAlignedObjectArrayIS_IP20btPersistentManifoldEEC2Ev(ptr noundef nonnull align 8 dereferenceable(25) %13)
          to label %14 unwind label %40

14:                                               ; preds = %3
  %15 = getelementptr inbounds nuw %class.btCollisionDispatcherMt, ptr %11, i32 0, i32 2
  invoke void @_ZN20btAlignedObjectArrayIS_IP20btPersistentManifoldEEC2Ev(ptr noundef nonnull align 8 dereferenceable(25) %15)
          to label %16 unwind label %44

16:                                               ; preds = %14
  %17 = getelementptr inbounds nuw %class.btCollisionDispatcherMt, ptr %11, i32 0, i32 1
  %18 = invoke noundef ptr @_Z18btGetTaskSchedulerv()
          to label %19 unwind label %48

19:                                               ; preds = %16
  %20 = load ptr, ptr %18, align 8, !tbaa !16
  %21 = getelementptr inbounds ptr, ptr %20, i64 3
  %22 = load ptr, ptr %21, align 8
  %23 = invoke noundef i32 %22(ptr noundef nonnull align 8 dereferenceable(21) %18)
          to label %24 unwind label %48

24:                                               ; preds = %19
  call void @llvm.lifetime.start.p0(i64 32, ptr %9) #11
  invoke void @_ZN20btAlignedObjectArrayIP20btPersistentManifoldEC2Ev(ptr noundef nonnull align 8 dereferenceable(25) %9)
          to label %25 unwind label %52

25:                                               ; preds = %24
  invoke void @_ZN20btAlignedObjectArrayIS_IP20btPersistentManifoldEE6resizeEiRKS2_(ptr noundef nonnull align 8 dereferenceable(25) %17, i32 noundef %23, ptr noundef nonnull align 8 dereferenceable(25) %9)
          to label %26 unwind label %56

26:                                               ; preds = %25
  call void @_ZN20btAlignedObjectArrayIP20btPersistentManifoldED2Ev(ptr noundef nonnull align 8 dereferenceable(25) %9) #11
  call void @llvm.lifetime.end.p0(i64 32, ptr %9) #11
  %27 = getelementptr inbounds nuw %class.btCollisionDispatcherMt, ptr %11, i32 0, i32 2
  %28 = invoke noundef ptr @_Z18btGetTaskSchedulerv()
          to label %29 unwind label %48

29:                                               ; preds = %26
  %30 = load ptr, ptr %28, align 8, !tbaa !16
  %31 = getelementptr inbounds ptr, ptr %30, i64 3
  %32 = load ptr, ptr %31, align 8
  %33 = invoke noundef i32 %32(ptr noundef nonnull align 8 dereferenceable(21) %28)
          to label %34 unwind label %48

34:                                               ; preds = %29
  call void @llvm.lifetime.start.p0(i64 32, ptr %10) #11
  invoke void @_ZN20btAlignedObjectArrayIP20btPersistentManifoldEC2Ev(ptr noundef nonnull align 8 dereferenceable(25) %10)
          to label %35 unwind label %61

35:                                               ; preds = %34
  invoke void @_ZN20btAlignedObjectArrayIS_IP20btPersistentManifoldEE6resizeEiRKS2_(ptr noundef nonnull align 8 dereferenceable(25) %27, i32 noundef %33, ptr noundef nonnull align 8 dereferenceable(25) %10)
          to label %36 unwind label %65

36:                                               ; preds = %35
  call void @_ZN20btAlignedObjectArrayIP20btPersistentManifoldED2Ev(ptr noundef nonnull align 8 dereferenceable(25) %10) #11
  call void @llvm.lifetime.end.p0(i64 32, ptr %10) #11
  %37 = getelementptr inbounds nuw %class.btCollisionDispatcherMt, ptr %11, i32 0, i32 3
  store i8 0, ptr %37, align 8, !tbaa !18
  %38 = load i32, ptr %6, align 4, !tbaa !9
  %39 = getelementptr inbounds nuw %class.btCollisionDispatcherMt, ptr %11, i32 0, i32 4
  store i32 %38, ptr %39, align 4, !tbaa !30
  ret void

40:                                               ; preds = %3
  %41 = landingpad { ptr, i32 }
          cleanup
  %42 = extractvalue { ptr, i32 } %41, 0
  store ptr %42, ptr %7, align 8
  %43 = extractvalue { ptr, i32 } %41, 1
  store i32 %43, ptr %8, align 4
  br label %72

44:                                               ; preds = %14
  %45 = landingpad { ptr, i32 }
          cleanup
  %46 = extractvalue { ptr, i32 } %45, 0
  store ptr %46, ptr %7, align 8
  %47 = extractvalue { ptr, i32 } %45, 1
  store i32 %47, ptr %8, align 4
  br label %71

48:                                               ; preds = %29, %26, %19, %16
  %49 = landingpad { ptr, i32 }
          cleanup
  %50 = extractvalue { ptr, i32 } %49, 0
  store ptr %50, ptr %7, align 8
  %51 = extractvalue { ptr, i32 } %49, 1
  store i32 %51, ptr %8, align 4
  br label %70

52:                                               ; preds = %24
  %53 = landingpad { ptr, i32 }
          cleanup
  %54 = extractvalue { ptr, i32 } %53, 0
  store ptr %54, ptr %7, align 8
  %55 = extractvalue { ptr, i32 } %53, 1
  store i32 %55, ptr %8, align 4
  br label %60

56:                                               ; preds = %25
  %57 = landingpad { ptr, i32 }
          cleanup
  %58 = extractvalue { ptr, i32 } %57, 0
  store ptr %58, ptr %7, align 8
  %59 = extractvalue { ptr, i32 } %57, 1
  store i32 %59, ptr %8, align 4
  call void @_ZN20btAlignedObjectArrayIP20btPersistentManifoldED2Ev(ptr noundef nonnull align 8 dereferenceable(25) %9) #11
  br label %60

60:                                               ; preds = %56, %52
  call void @llvm.lifetime.end.p0(i64 32, ptr %9) #11
  br label %70

61:                                               ; preds = %34
  %62 = landingpad { ptr, i32 }
          cleanup
  %63 = extractvalue { ptr, i32 } %62, 0
  store ptr %63, ptr %7, align 8
  %64 = extractvalue { ptr, i32 } %62, 1
  store i32 %64, ptr %8, align 4
  br label %69

65:                                               ; preds = %35
  %66 = landingpad { ptr, i32 }
          cleanup
  %67 = extractvalue { ptr, i32 } %66, 0
  store ptr %67, ptr %7, align 8
  %68 = extractvalue { ptr, i32 } %66, 1
  store i32 %68, ptr %8, align 4
  call void @_ZN20btAlignedObjectArrayIP20btPersistentManifoldED2Ev(ptr noundef nonnull align 8 dereferenceable(25) %10) #11
  br label %69

69:                                               ; preds = %65, %61
  call void @llvm.lifetime.end.p0(i64 32, ptr %10) #11
  br label %70

70:                                               ; preds = %69, %60, %48
  call void @_ZN20btAlignedObjectArrayIS_IP20btPersistentManifoldEED2Ev(ptr noundef nonnull align 8 dereferenceable(25) %15) #11
  br label %71

71:                                               ; preds = %70, %44
  call void @_ZN20btAlignedObjectArrayIS_IP20btPersistentManifoldEED2Ev(ptr noundef nonnull align 8 dereferenceable(25) %13) #11
  br label %72

72:                                               ; preds = %71, %40
  call void @_ZN21btCollisionDispatcherD2Ev(ptr noundef nonnull align 8 dereferenceable(20816) %11) #11
  br label %73

73:                                               ; preds = %72
  %74 = load ptr, ptr %7, align 8
  %75 = load i32, ptr %8, align 4
  %76 = insertvalue { ptr, i32 } poison, ptr %74, 0
  %77 = insertvalue { ptr, i32 } %76, i32 %75, 1
  resume { ptr, i32 } %77
}