; Function Attrs: mustprogress uwtable
define dso_local void @_ZN23btCollisionDispatcherMtC2EP24btCollisionConfigurationi(ptr noundef nonnull align 8 dereferenceable(20888) %0, ptr noundef %1, i32 noundef %2) unnamed_addr #0 align 2 personality ptr @__gxx_personality_v0 {
  %4 = alloca %class.btAlignedObjectArray, align 8
  %5 = alloca %class.btAlignedObjectArray, align 8
  tail call void @_ZN21btCollisionDispatcherC2EP24btCollisionConfiguration(ptr noundef nonnull align 8 dereferenceable(20816) %0, ptr noundef %1)
  store ptr getelementptr inbounds nuw inrange(-16, 128) (i8, ptr @_ZTV23btCollisionDispatcherMt, i64 16), ptr %0, align 8, !tbaa !4
  %6 = getelementptr inbounds nuw i8, ptr %0, i64 20816
  %7 = getelementptr inbounds nuw i8, ptr %0, i64 20840
  store i8 1, ptr %7, align 8, !tbaa !7
  %8 = getelementptr inbounds nuw i8, ptr %0, i64 20832
  store ptr null, ptr %8, align 8, !tbaa !15
  %9 = getelementptr inbounds nuw i8, ptr %0, i64 20820
  store i32 0, ptr %9, align 4, !tbaa !16
  %10 = getelementptr inbounds nuw i8, ptr %0, i64 20824
  store i32 0, ptr %10, align 8, !tbaa !17
  %11 = getelementptr inbounds nuw i8, ptr %0, i64 20848
  %12 = getelementptr inbounds nuw i8, ptr %0, i64 20872
  store i8 1, ptr %12, align 8, !tbaa !7
  %13 = getelementptr inbounds nuw i8, ptr %0, i64 20864
  store ptr null, ptr %13, align 8, !tbaa !15
  %14 = getelementptr inbounds nuw i8, ptr %0, i64 20852
  store i32 0, ptr %14, align 4, !tbaa !16
  %15 = getelementptr inbounds nuw i8, ptr %0, i64 20856
  store i32 0, ptr %15, align 8, !tbaa !17
  %16 = invoke noundef ptr @_Z18btGetTaskSchedulerv()
          to label %17 unwind label %58

17:                                               ; preds = %3
  %18 = load ptr, ptr %16, align 8, !tbaa !4
  %19 = getelementptr inbounds nuw i8, ptr %18, i64 24
  %20 = load ptr, ptr %19, align 8
  %21 = invoke noundef i32 %20(ptr noundef nonnull align 8 dereferenceable(21) %16)
          to label %22 unwind label %58

22:                                               ; preds = %17
  call void @llvm.lifetime.start.p0(i64 32, ptr nonnull %4) #11
  %23 = getelementptr inbounds nuw i8, ptr %4, i64 24
  store i8 1, ptr %23, align 8, !tbaa !18
  %24 = getelementptr inbounds nuw i8, ptr %4, i64 16
  store ptr null, ptr %24, align 8, !tbaa !22
  %25 = getelementptr inbounds nuw i8, ptr %4, i64 4
  store i32 0, ptr %25, align 4, !tbaa !23
  %26 = getelementptr inbounds nuw i8, ptr %4, i64 8
  store i32 0, ptr %26, align 8, !tbaa !24
  invoke void @_ZN20btAlignedObjectArrayIS_IP20btPersistentManifoldEE6resizeEiRKS2_(ptr noundef nonnull align 8 dereferenceable(25) %6, i32 noundef %21, ptr noundef nonnull align 8 dereferenceable(25) %4)
          to label %27 unwind label %60

27:                                               ; preds = %22
  %28 = load ptr, ptr %24, align 8, !tbaa !22
  %.not.i.i.i = icmp eq ptr %28, null
  br i1 %.not.i.i.i, label %_ZN20btAlignedObjectArrayIP20btPersistentManifoldED2Ev.exit, label %29

29:                                               ; preds = %27
  %30 = load i8, ptr %23, align 8, !tbaa !18, !range !25, !noundef !26
  %31 = trunc nuw i8 %30 to i1
  br i1 %31, label %32, label %_ZN20btAlignedObjectArrayIP20btPersistentManifoldED2Ev.exit

32:                                               ; preds = %29
  invoke void @_Z21btAlignedFreeInternalPv(ptr noundef nonnull %28)
          to label %_ZN20btAlignedObjectArrayIP20btPersistentManifoldED2Ev.exit unwind label %33

33:                                               ; preds = %32
  %34 = landingpad { ptr, i32 }
          catch ptr null
  %35 = extractvalue { ptr, i32 } %34, 0
  call void @__clang_call_terminate(ptr %35) #12
  unreachable

_ZN20btAlignedObjectArrayIP20btPersistentManifoldED2Ev.exit: ; preds = %27, %29, %32
  call void @llvm.lifetime.end.p0(i64 32, ptr nonnull %4) #11
  %36 = invoke noundef ptr @_Z18btGetTaskSchedulerv()
          to label %37 unwind label %58

37:                                               ; preds = %_ZN20btAlignedObjectArrayIP20btPersistentManifoldED2Ev.exit
  %38 = load ptr, ptr %36, align 8, !tbaa !4
  %39 = getelementptr inbounds nuw i8, ptr %38, i64 24
  %40 = load ptr, ptr %39, align 8
  %41 = invoke noundef i32 %40(ptr noundef nonnull align 8 dereferenceable(21) %36)
          to label %42 unwind label %58

42:                                               ; preds = %37
  call void @llvm.lifetime.start.p0(i64 32, ptr nonnull %5) #11
  %43 = getelementptr inbounds nuw i8, ptr %5, i64 24
  store i8 1, ptr %43, align 8, !tbaa !18
  %44 = getelementptr inbounds nuw i8, ptr %5, i64 16
  store ptr null, ptr %44, align 8, !tbaa !22
  %45 = getelementptr inbounds nuw i8, ptr %5, i64 4
  store i32 0, ptr %45, align 4, !tbaa !23
  %46 = getelementptr inbounds nuw i8, ptr %5, i64 8
  store i32 0, ptr %46, align 8, !tbaa !24
  invoke void @_ZN20btAlignedObjectArrayIS_IP20btPersistentManifoldEE6resizeEiRKS2_(ptr noundef nonnull align 8 dereferenceable(25) %11, i32 noundef %41, ptr noundef nonnull align 8 dereferenceable(25) %5)
          to label %47 unwind label %62

47:                                               ; preds = %42
  %48 = load ptr, ptr %44, align 8, !tbaa !22
  %.not.i.i.i15 = icmp eq ptr %48, null
  br i1 %.not.i.i.i15, label %_ZN20btAlignedObjectArrayIP20btPersistentManifoldED2Ev.exit16, label %49

49:                                               ; preds = %47
  %50 = load i8, ptr %43, align 8, !tbaa !18, !range !25, !noundef !26
  %51 = trunc nuw i8 %50 to i1
  br i1 %51, label %52, label %_ZN20btAlignedObjectArrayIP20btPersistentManifoldED2Ev.exit16

52:                                               ; preds = %49
  invoke void @_Z21btAlignedFreeInternalPv(ptr noundef nonnull %48)
          to label %_ZN20btAlignedObjectArrayIP20btPersistentManifoldED2Ev.exit16 unwind label %53

53:                                               ; preds = %52
  %54 = landingpad { ptr, i32 }
          catch ptr null
  %55 = extractvalue { ptr, i32 } %54, 0
  call void @__clang_call_terminate(ptr %55) #12
  unreachable

_ZN20btAlignedObjectArrayIP20btPersistentManifoldED2Ev.exit16: ; preds = %47, %49, %52
  call void @llvm.lifetime.end.p0(i64 32, ptr nonnull %5) #11
  %56 = getelementptr inbounds nuw i8, ptr %0, i64 20880
  store i8 0, ptr %56, align 8, !tbaa !27
  %57 = getelementptr inbounds nuw i8, ptr %0, i64 20884
  store i32 %2, ptr %57, align 4, !tbaa !33
  ret void

58:                                               ; preds = %37, %_ZN20btAlignedObjectArrayIP20btPersistentManifoldED2Ev.exit, %17, %3
  %59 = landingpad { ptr, i32 }
          cleanup
  br label %64

60:                                               ; preds = %22
  %61 = landingpad { ptr, i32 }
          cleanup
  call void @_ZN20btAlignedObjectArrayIP20btPersistentManifoldED2Ev(ptr noundef nonnull align 8 dereferenceable(25) %4) #11
  call void @llvm.lifetime.end.p0(i64 32, ptr nonnull %4) #11
  br label %64

62:                                               ; preds = %42
  %63 = landingpad { ptr, i32 }
          cleanup
  call void @_ZN20btAlignedObjectArrayIP20btPersistentManifoldED2Ev(ptr noundef nonnull align 8 dereferenceable(25) %5) #11
  call void @llvm.lifetime.end.p0(i64 32, ptr nonnull %5) #11
  br label %64

64:                                               ; preds = %62, %60, %58
  %.pn10.pn = phi { ptr, i32 } [ %63, %62 ], [ %59, %58 ], [ %61, %60 ]
  call void @_ZN20btAlignedObjectArrayIS_IP20btPersistentManifoldEED2Ev(ptr noundef nonnull align 8 dereferenceable(25) %11) #11
  call void @_ZN20btAlignedObjectArrayIS_IP20btPersistentManifoldEED2Ev(ptr noundef nonnull align 8 dereferenceable(25) %6) #11
  call void @_ZN21btCollisionDispatcherD2Ev(ptr noundef nonnull align 8 dereferenceable(20816) %0) #11
  resume { ptr, i32 } %.pn10.pn
}